target datalayout = "e-m:e-p270:32:32-p271:32:32-p272:64:64-i64:64-i128:128-f80:128-n8:16:32:64-S128"
target triple = "x86_64-pc-linux-gnu"

%struct.TriggerDesc = type { ptr, i32, i8, i8, i8, i8, i8, i8, i8, i8, i8, i8, i8, i8, i8, i8, i8, i8, i8, i8, i8, i8, i8 }
%struct.ResultRelInfo = type { i32, i32, ptr, i32, ptr, ptr, i16, ptr, i8, ptr, ptr, ptr, i8, i8, ptr, ptr, ptr, ptr, ptr, ptr, ptr, ptr, ptr, ptr, i8, i32, i32, i32, ptr, ptr, ptr, ptr, ptr, ptr, ptr, i32, i32, ptr, ptr, ptr, ptr, [3 x ptr], ptr, ptr, ptr, i8, ptr, i8, ptr, ptr, ptr, ptr }

; Function Attrs: nounwind uwtable
define dso_local void @ExecASTruncateTriggers(ptr noundef %0, ptr noundef %1) #0 {
  %3 = alloca ptr, align 8
  %4 = alloca ptr, align 8
  %5 = alloca ptr, align 8
  store ptr %0, ptr %3, align 8
  store ptr %1, ptr %4, align 8
  call void @llvm.lifetime.start.p0(i64 8, ptr %5) #12
  %6 = load ptr, ptr %4, align 8
  %7 = getelementptr inbounds nuw %struct.ResultRelInfo, ptr %6, i32 0, i32 14
  %8 = load ptr, ptr %7, align 8
  store ptr %8, ptr %5, align 8
  %9 = load ptr, ptr %5, align 8
  %10 = icmp ne ptr %9, null
  br i1 %10, label %11, label %19

11:                                               ; preds = %2
  %12 = load ptr, ptr %5, align 8
  %13 = getelementptr inbounds nuw %struct.TriggerDesc, ptr %12, i32 0, i32 18
  %14 = load i8, ptr %13, align 4, !range !4, !noundef !5
  %15 = trunc i8 %14 to i1
  br i1 %15, label %16, label %19

16:                                               ; preds = %11
  %17 = load ptr, ptr %3, align 8
  %18 = load ptr, ptr %4, align 8
  call void @AfterTriggerSaveEvent(ptr noundef %17, ptr noundef %18, ptr noundef null, ptr noundef null, i32 noundef 3, i1 noundef zeroext false, ptr noundef null, ptr noundef null, ptr noundef null, ptr noundef null, ptr noundef null, i1 noundef zeroext false)
  br label %19

19:                                               ; preds = %16, %11, %2
  call void @llvm.lifetime.end.p0(i64 8, ptr %5) #12
  ret void
}