; Function Attrs: nounwind uwtable
define dso_local void @ExecASTruncateTriggers(ptr noundef %0, ptr noundef %1) local_unnamed_addr #0 {
  %3 = getelementptr inbounds nuw i8, ptr %1, i64 96
  %4 = load ptr, ptr %3, align 8
  %.not = icmp eq ptr %4, null
  br i1 %.not, label %10, label %5

5:                                                ; preds = %2
  %6 = getelementptr inbounds nuw i8, ptr %4, i64 28
  %7 = load i8, ptr %6, align 4, !range !4, !noundef !5
  %8 = trunc nuw i8 %7 to i1
  br i1 %8, label %9, label %10

9:                                                ; preds = %5
  tail call fastcc void @AfterTriggerSaveEvent(ptr noundef %0, ptr noundef nonnull %1, ptr noundef null, ptr noundef null, i32 noundef 3, i1 noundef zeroext false, ptr noundef null, ptr noundef null, ptr noundef null, ptr noundef null, ptr noundef null, i1 noundef zeroext false)
  br label %10

10:                                               ; preds = %9, %5, %2
  ret void
}